target datalayout = "e-m:e-p270:32:32-p271:32:32-p272:64:64-i64:64-i128:128-f80:128-n8:16:32:64-S128"
target triple = "x86_64-pc-linux-gnu"

%"class.mu::ParserByteCode" = type <{ i32, [4 x i8], i64, %"class.std::vector", i8, [7 x i8] }>
%"class.std::vector" = type { %"struct.std::_Vector_base" }
%"struct.std::_Vector_base" = type { %"struct.std::_Vector_base<mu::SToken, std::allocator<mu::SToken>>::_Vector_impl" }
%"struct.std::_Vector_base<mu::SToken, std::allocator<mu::SToken>>::_Vector_impl" = type { %"struct.std::_Vector_base<mu::SToken, std::allocator<mu::SToken>>::_Vector_impl_data" }
%"struct.std::_Vector_base<mu::SToken, std::allocator<mu::SToken>>::_Vector_impl_data" = type { ptr, ptr, ptr }

; Function Attrs: mustprogress uwtable
define void @_ZN2mu14ParserByteCode6AssignERKS0_(ptr noundef nonnull align 8 dereferenceable(48) %0, ptr noundef nonnull align 8 dereferenceable(48) %1) #6 align 2 {
  %3 = alloca ptr, align 8
  %4 = alloca ptr, align 8
  store ptr %0, ptr %3, align 8, !tbaa !32
  store ptr %1, ptr %4, align 8, !tbaa !32
  %5 = load ptr, ptr %3, align 8
  %6 = load ptr, ptr %4, align 8, !tbaa !32
  %7 = icmp eq ptr %5, %6
  br i1 %7, label %8, label %9

8:                                                ; preds = %2
  br label %28

9:                                                ; preds = %2
  %10 = load ptr, ptr %4, align 8, !tbaa !32
  %11 = getelementptr inbounds nuw %"class.mu::ParserByteCode", ptr %10, i32 0, i32 0
  %12 = load i32, ptr %11, align 8, !tbaa !34
  %13 = getelementptr inbounds nuw %"class.mu::ParserByteCode", ptr %5, i32 0, i32 0
  store i32 %12, ptr %13, align 8, !tbaa !34
  %14 = load ptr, ptr %4, align 8, !tbaa !32
  %15 = getelementptr inbounds nuw %"class.mu::ParserByteCode", ptr %14, i32 0, i32 3
  %16 = getelementptr inbounds nuw %"class.mu::ParserByteCode", ptr %5, i32 0, i32 3
  %17 = call noundef nonnull align 8 dereferenceable(24) ptr @_ZNSt6vectorIN2mu6STokenESaIS1_EEaSERKS3_(ptr noundef nonnull align 8 dereferenceable(24) %16, ptr noundef nonnull align 8 dereferenceable(24) %15)
  %18 = load ptr, ptr %4, align 8, !tbaa !32
  %19 = getelementptr inbounds nuw %"class.mu::ParserByteCode", ptr %18, i32 0, i32 2
  %20 = load i64, ptr %19, align 8, !tbaa !43
  %21 = getelementptr inbounds nuw %"class.mu::ParserByteCode", ptr %5, i32 0, i32 2
  store i64 %20, ptr %21, align 8, !tbaa !43
  %22 = load ptr, ptr %4, align 8, !tbaa !32
  %23 = getelementptr inbounds nuw %"class.mu::ParserByteCode", ptr %22, i32 0, i32 4
  %24 = load i8, ptr %23, align 8, !tbaa !44, !range !62, !noundef !63
  %25 = trunc i8 %24 to i1
  %26 = getelementptr inbounds nuw %"class.mu::ParserByteCode", ptr %5, i32 0, i32 4
  %27 = zext i1 %25 to i8
  store i8 %27, ptr %26, align 8, !tbaa !44
  br label %28

28:                                               ; preds = %9, %8
  ret void
}

; Function Attrs: mustprogress uwtable
define noundef nonnull align 8 dereferenceable(48) ptr @_ZN2mu14ParserByteCodeaSERKS0_(ptr noundef nonnull align 8 dereferenceable(48) %0, ptr noundef nonnull align 8 dereferenceable(48) %1) #6 align 2 {
  %3 = alloca ptr, align 8
  %4 = alloca ptr, align 8
  store ptr %0, ptr %3, align 8, !tbaa !32
  store ptr %1, ptr %4, align 8, !tbaa !32
  %5 = load ptr, ptr %3, align 8
  %6 = load ptr, ptr %4, align 8, !tbaa !32
  call void @_ZN2mu14ParserByteCode6AssignERKS0_(ptr noundef nonnull align 8 dereferenceable(48) %5, ptr noundef nonnull align 8 dereferenceable(48) %6)
  ret ptr %5
}