; Function Attrs: mustprogress uwtable
define noundef nonnull align 8 dereferenceable(48) ptr @_ZN2mu14ParserByteCodeaSERKS0_(ptr noundef nonnull returned align 8 dereferenceable(48) %0, ptr noundef nonnull align 8 dereferenceable(48) %1) local_unnamed_addr #9 align 2 {
  %3 = icmp eq ptr %0, %1
  br i1 %3, label %_ZN2mu14ParserByteCode6AssignERKS0_.exit, label %4

4:                                                ; preds = %2
  %5 = load i32, ptr %1, align 8, !tbaa !4
  store i32 %5, ptr %0, align 8, !tbaa !4
  %6 = getelementptr inbounds nuw i8, ptr %1, i64 16
  %7 = getelementptr inbounds nuw i8, ptr %0, i64 16
  %8 = tail call noundef nonnull align 8 dereferenceable(24) ptr @_ZNSt6vectorIN2mu6STokenESaIS1_EEaSERKS3_(ptr noundef nonnull align 8 dereferenceable(24) %7, ptr noundef nonnull align 8 dereferenceable(24) %6)
  %9 = getelementptr inbounds nuw i8, ptr %1, i64 8
  %10 = load i64, ptr %9, align 8, !tbaa !21
  %11 = getelementptr inbounds nuw i8, ptr %0, i64 8
  store i64 %10, ptr %11, align 8, !tbaa !21
  %12 = getelementptr inbounds nuw i8, ptr %1, i64 40
  %13 = load i8, ptr %12, align 8, !tbaa !17, !range !22, !noundef !23
  %14 = getelementptr inbounds nuw i8, ptr %0, i64 40
  store i8 %13, ptr %14, align 8, !tbaa !17
  br label %_ZN2mu14ParserByteCode6AssignERKS0_.exit

_ZN2mu14ParserByteCode6AssignERKS0_.exit:         ; preds = %2, %4
  ret ptr %0
}